; Function Attrs: mustprogress nofree norecurse nosync nounwind willreturn memory(read, argmem: readwrite, inaccessiblemem: none) uwtable
define hidden void @_ZN16DefNewGeneration11swap_spacesEv(ptr nocapture noundef nonnull align 8 dereferenceable(744) %0) local_unnamed_addr #4 align 2 {
  %2 = getelementptr inbounds i8, ptr %0, i64 680
  %3 = load <2 x ptr>, ptr %2, align 8
  %4 = shufflevector <2 x ptr> %3, <2 x ptr> poison, <2 x i32> <i32 1, i32 0>
  store <2 x ptr> %4, ptr %2, align 8
  %5 = load i8, ptr @UsePerfData, align 1
  %6 = trunc i8 %5 to i1
  br i1 %6, label %7, label %11

7:                                                ; preds = %1
  %8 = getelementptr inbounds i8, ptr %0, i64 640
  %9 = load <2 x ptr>, ptr %8, align 8
  %10 = shufflevector <2 x ptr> %9, <2 x ptr> poison, <2 x i32> <i32 1, i32 0>
  store <2 x ptr> %10, ptr %8, align 8
  br label %11

11:                                               ; preds = %7, %1
  ret void
}